target datalayout = "e-m:e-p270:32:32-p271:32:32-p272:64:64-i64:64-i128:128-f80:128-n8:16:32:64-S128"
target triple = "x86_64-pc-linux-gnu"

%class.QString = type { %struct.QArrayDataPointer }
%struct.QArrayDataPointer = type { ptr, ptr, i64 }
%class.QObject = type { ptr, %class.QScopedPointer }
%class.QScopedPointer = type { ptr }
%struct.nstime_t = type { i64, i32 }
%class.QBrush = type { %"class.std::unique_ptr" }
%"class.std::unique_ptr" = type { %"struct.std::__uniq_ptr_data" }
%"struct.std::__uniq_ptr_data" = type { %"class.std::__uniq_ptr_impl" }
%"class.std::__uniq_ptr_impl" = type { %"class.std::tuple" }
%"class.std::tuple" = type { %"struct.std::_Tuple_impl" }
%"struct.std::_Tuple_impl" = type { %"struct.std::_Head_base.28" }
%"struct.std::_Head_base.28" = type { ptr }
%class.IOGraph = type <{ %class.QObject, i32, i32, ptr, %class.QString, %class.QString, i8, i8, i8, [5 x i8], ptr, ptr, %class.QString, %class.QString, %class.QBrush, i32, [4 x i8], %class.QString, i32, i32, %struct.nstime_t, i8, [7 x i8], %"class.std::vector", i32, [4 x i8] }>
%"class.std::vector" = type { %"struct.std::_Vector_base" }
%"struct.std::_Vector_base" = type { %"struct.std::_Vector_base<_io_graph_item_t, std::allocator<_io_graph_item_t>>::_Vector_impl" }
%"struct.std::_Vector_base<_io_graph_item_t, std::allocator<_io_graph_item_t>>::_Vector_impl" = type { %"struct.std::_Vector_base<_io_graph_item_t, std::allocator<_io_graph_item_t>>::_Vector_impl_data" }
%"struct.std::_Vector_base<_io_graph_item_t, std::allocator<_io_graph_item_t>>::_Vector_impl_data" = type { ptr, ptr, ptr }

; Function Attrs: mustprogress null_pointer_is_valid sspstrong uwtable
define void @_ZN7IOGraph6setAOTEb(ptr noundef align 8 dereferenceable_or_null(252) %0, i1 noundef zeroext %1) #3 align 2 {
  %3 = alloca ptr, align 8
  %4 = alloca i8, align 1
  %5 = alloca i8, align 1
  store ptr %0, ptr %3, align 8
  %6 = zext i1 %1 to i8
  store i8 %6, ptr %4, align 1
  %7 = load ptr, ptr %3, align 8
  call void @llvm.lifetime.start.p0(i64 1, ptr %5) #2
  %8 = getelementptr inbounds nuw %class.IOGraph, ptr %7, i32 0, i32 21
  %9 = load i8, ptr %8, align 8, !range !6, !noundef !7
  %10 = trunc i8 %9 to i1
  %11 = zext i1 %10 to i8
  store i8 %11, ptr %5, align 1
  %12 = load i8, ptr %4, align 1, !range !6, !noundef !7
  %13 = trunc i8 %12 to i1
  %14 = getelementptr inbounds nuw %class.IOGraph, ptr %7, i32 0, i32 21
  %15 = zext i1 %13 to i8
  store i8 %15, ptr %14, align 8
  %16 = load i8, ptr %5, align 1, !range !6, !noundef !7
  %17 = trunc i8 %16 to i1
  %18 = zext i1 %17 to i32
  %19 = load i8, ptr %4, align 1, !range !6, !noundef !7
  %20 = trunc i8 %19 to i1
  %21 = zext i1 %20 to i32
  %22 = icmp ne i32 %18, %21
  br i1 %22, label %23, label %35

23:                                               ; preds = %2
  %24 = getelementptr inbounds nuw %class.IOGraph, ptr %7, i32 0, i32 7
  %25 = load i8, ptr %24, align 1, !range !6, !noundef !7
  %26 = trunc i8 %25 to i1
  br i1 %26, label %27, label %33

27:                                               ; preds = %23
  %28 = getelementptr inbounds nuw %class.IOGraph, ptr %7, i32 0, i32 8
  %29 = load i8, ptr %28, align 2, !range !6, !noundef !7
  %30 = trunc i8 %29 to i1
  br i1 %30, label %31, label %33

31:                                               ; preds = %27
  %32 = getelementptr inbounds nuw %class.IOGraph, ptr %7, i32 0, i32 8
  store i8 0, ptr %32, align 2
  call void @_ZN7IOGraph12requestRetapEv(ptr noundef align 8 dereferenceable_or_null(252) %7)
  br label %34

33:                                               ; preds = %27, %23
  call void @_ZN7IOGraph13requestRecalcEv(ptr noundef align 8 dereferenceable_or_null(252) %7)
  br label %34

34:                                               ; preds = %33, %31
  br label %35

35:                                               ; preds = %34, %2
  call void @llvm.lifetime.end.p0(i64 1, ptr %5) #2
  ret void
}