; Function Attrs: mustprogress null_pointer_is_valid sspstrong uwtable
define void @_ZN7IOGraph6setAOTEb(ptr noundef align 8 dereferenceable_or_null(252) %0, i1 noundef zeroext %1) local_unnamed_addr #2 align 2 {
  %3 = zext i1 %1 to i8
  %4 = getelementptr inbounds nuw i8, ptr %0, i64 216
  %5 = load i8, ptr %4, align 8, !range !12, !noundef !13
  store i8 %3, ptr %4, align 8
  %.not = icmp eq i8 %5, %3
  br i1 %.not, label %16, label %6

6:                                                ; preds = %2
  %7 = getelementptr inbounds nuw i8, ptr %0, i64 81
  %8 = load i8, ptr %7, align 1, !range !12, !noundef !13
  %9 = trunc nuw i8 %8 to i1
  br i1 %9, label %10, label %15

10:                                               ; preds = %6
  %11 = getelementptr inbounds nuw i8, ptr %0, i64 82
  %12 = load i8, ptr %11, align 2, !range !12, !noundef !13
  %13 = trunc nuw i8 %12 to i1
  br i1 %13, label %14, label %15

14:                                               ; preds = %10
  store i8 0, ptr %11, align 2
  tail call void @_ZN7IOGraph12requestRetapEv(ptr noundef align 8 dereferenceable_or_null(252) %0)
  br label %16

15:                                               ; preds = %10, %6
  tail call void @_ZN7IOGraph13requestRecalcEv(ptr noundef align 8 dereferenceable_or_null(252) %0)
  br label %16

16:                                               ; preds = %14, %15, %2
  ret void
}